target datalayout = "e-m:e-p270:32:32-p271:32:32-p272:64:64-i64:64-i128:128-f80:128-n8:16:32:64-S128"
target triple = "x86_64-pc-linux-gnu"

%struct.cli_exe_section = type { i32, i32, i32, i32, i32, i32, i32, i32, i32 }

@.str = private unnamed_addr constant [24 x i8] c"FSG: Rebuilding failed\0A\00", align 1

; Function Attrs: nounwind uwtable
define i32 @unfsg_200(ptr noundef %0, ptr noundef %1, i32 noundef %2, i32 noundef %3, i32 noundef %4, i32 noundef %5, i32 noundef %6, i32 noundef %7) #0 {
  %9 = alloca i32, align 4
  %10 = alloca ptr, align 8
  %11 = alloca ptr, align 8
  %12 = alloca i32, align 4
  %13 = alloca i32, align 4
  %14 = alloca i32, align 4
  %15 = alloca i32, align 4
  %16 = alloca i32, align 4
  %17 = alloca i32, align 4
  %18 = alloca %struct.cli_exe_section, align 4
  store ptr %0, ptr %10, align 8
  store ptr %1, ptr %11, align 8
  store i32 %2, ptr %12, align 4
  store i32 %3, ptr %13, align 4
  store i32 %4, ptr %14, align 4
  store i32 %5, ptr %15, align 4
  store i32 %6, ptr %16, align 4
  store i32 %7, ptr %17, align 4
  %19 = load ptr, ptr %10, align 8
  %20 = load ptr, ptr %11, align 8
  %21 = load i32, ptr %12, align 4
  %22 = load i32, ptr %13, align 4
  %23 = call i32 @cli_unfsg(ptr noundef %19, ptr noundef %20, i32 noundef %21, i32 noundef %22, ptr noundef null, ptr noundef null)
  %24 = icmp ne i32 %23, 0
  br i1 %24, label %25, label %26

25:                                               ; preds = %8
  store i32 -1, ptr %9, align 4
  br label %42

26:                                               ; preds = %8
  %27 = getelementptr inbounds %struct.cli_exe_section, ptr %18, i32 0, i32 2
  store i32 0, ptr %27, align 4
  %28 = load i32, ptr %13, align 4
  %29 = getelementptr inbounds %struct.cli_exe_section, ptr %18, i32 0, i32 3
  store i32 %28, ptr %29, align 4
  %30 = load i32, ptr %13, align 4
  %31 = getelementptr inbounds %struct.cli_exe_section, ptr %18, i32 0, i32 1
  store i32 %30, ptr %31, align 4
  %32 = load i32, ptr %14, align 4
  %33 = getelementptr inbounds %struct.cli_exe_section, ptr %18, i32 0, i32 0
  store i32 %32, ptr %33, align 4
  %34 = load ptr, ptr %11, align 8
  %35 = load i32, ptr %15, align 4
  %36 = load i32, ptr %16, align 4
  %37 = load i32, ptr %17, align 4
  %38 = call i32 @cli_rebuildpe(ptr noundef %34, ptr noundef %18, i32 noundef 1, i32 noundef %35, i32 noundef %36, i32 noundef 0, i32 noundef 0, i32 noundef %37)
  %39 = icmp ne i32 %38, 0
  br i1 %39, label %41, label %40

40:                                               ; preds = %26
  call void (ptr, ...) @cli_dbgmsg(ptr noundef @.str)
  store i32 0, ptr %9, align 4
  br label %42

41:                                               ; preds = %26
  store i32 1, ptr %9, align 4
  br label %42

42:                                               ; preds = %41, %40, %25
  %43 = load i32, ptr %9, align 4
  ret i32 %43
}