; Function Attrs: nounwind uwtable
define range(i32 -1, 2) i32 @unfsg_200(ptr noundef %0, ptr noundef %1, i32 noundef %2, i32 noundef %3, i32 noundef %4, i32 noundef %5, i32 noundef %6, i32 noundef %7) local_unnamed_addr #0 {
  %9 = alloca %struct.cli_exe_section, align 4
  %10 = tail call i32 @cli_unfsg(ptr noundef %0, ptr noundef %1, i32 noundef %2, i32 noundef %3, ptr noundef null, ptr noundef null) #2
  %.not = icmp eq i32 %10, 0
  br i1 %.not, label %11, label %17

11:                                               ; preds = %8
  %12 = getelementptr inbounds nuw i8, ptr %9, i64 8
  store i32 0, ptr %12, align 4
  %13 = getelementptr inbounds nuw i8, ptr %9, i64 12
  store i32 %3, ptr %13, align 4
  %14 = getelementptr inbounds nuw i8, ptr %9, i64 4
  store i32 %3, ptr %14, align 4
  store i32 %4, ptr %9, align 4
  %15 = call i32 @cli_rebuildpe(ptr noundef %1, ptr noundef nonnull %9, i32 noundef 1, i32 noundef %5, i32 noundef %6, i32 noundef 0, i32 noundef 0, i32 noundef %7) #2
  %.not11 = icmp eq i32 %15, 0
  br i1 %.not11, label %16, label %17

16:                                               ; preds = %11
  call void (ptr, ...) @cli_dbgmsg(ptr noundef nonnull @.str) #2
  br label %17

17:                                               ; preds = %11, %8, %16
  %.0 = phi i32 [ 0, %16 ], [ -1, %8 ], [ 1, %11 ]
  ret i32 %.0
}